; Function Attrs: mustprogress nounwind uwtable
define hidden void @_ZN9OopMapSet7oops_doEPK5framePK11RegisterMapP10OopClosureP17DerivedOopClosure(ptr noundef %0, ptr noundef %1, ptr noundef %2, ptr noundef %3) local_unnamed_addr #2 align 2 {
  %5 = alloca %class.OopMapDo, align 8
  %6 = getelementptr inbounds i8, ptr %0, i64 16
  %7 = load ptr, ptr %6, align 8
  %8 = getelementptr inbounds i8, ptr %0, i64 8
  %9 = load ptr, ptr %8, align 8
  %10 = tail call noundef ptr @_ZNK8CodeBlob26oop_map_for_return_addressEPh(ptr noundef nonnull align 8 dereferenceable(54) %7, ptr noundef %9) #19
  call void @llvm.lifetime.start.p0(i64 16, ptr nonnull %5)
  store ptr %2, ptr %5, align 8
  %11 = getelementptr inbounds i8, ptr %5, i64 8
  store ptr %3, ptr %11, align 8
  call void @_ZN8OopMapDoI10OopClosure17DerivedOopClosure13SkipNullValueE15iterate_oops_doI11RegisterMapEEvPK5framePKT_PK15ImmutableOopMap(ptr noundef nonnull align 8 dereferenceable(16) %5, ptr noundef %0, ptr noundef %1, ptr noundef nonnull %10)
  call void @llvm.lifetime.end.p0(i64 16, ptr nonnull %5)
  ret void
}